; Function Attrs: mustprogress uwtable
define void @_Z27tsi_frame_protector_destroyP19tsi_frame_protector(ptr noundef %0) local_unnamed_addr #4 {
  %2 = icmp eq ptr %0, null
  br i1 %2, label %7, label %3

3:                                                ; preds = %1
  %4 = load ptr, ptr %0, align 8, !tbaa !3
  %5 = getelementptr inbounds nuw i8, ptr %4, i64 24
  %6 = load ptr, ptr %5, align 8, !tbaa !13
  tail call void %6(ptr noundef nonnull %0)
  br label %7

7:                                                ; preds = %1, %3
  ret void
}